target datalayout = "e-m:e-p270:32:32-p271:32:32-p272:64:64-i64:64-i128:128-f80:128-n8:16:32:64-S128"
target triple = "x86_64-pc-linux-gnu"

%"class.std::__cxx11::basic_string" = type { %"struct.std::__cxx11::basic_string<char>::_Alloc_hider", i64, %union.anon }
%"struct.std::__cxx11::basic_string<char>::_Alloc_hider" = type { ptr }
%union.anon = type { i64, [8 x i8] }
%"class.std::allocator" = type { i8 }
%"class.cv::Mat" = type { i32, i32, i32, i32, ptr, ptr, ptr, ptr, ptr, ptr, %"struct.cv::MatSize", %"struct.cv::MatStep" }
%"struct.cv::MatSize" = type { ptr }
%"struct.cv::MatStep" = type { ptr, [2 x i64] }
%"class.cv::NAryMatIterator" = type { ptr, ptr, ptr, i32, i64, i64, i32, i64 }

@.str.31 = private unnamed_addr constant [118 x i8] c"generated/home/dtcxzyw/WorkSpace/Projects/compilers/llvm-opt-benchmark/bench/opencv/opencv/modules/ts/src/ts_func.cpp\00", align 1
@.str.38 = private unnamed_addr constant [87 x i8] c"dst.size == src.size && src.depth() == dst.depth() && 0 <= coi && coi < dst.channels()\00", align 1
@__func__._ZN6cvtest6insertERKN2cv3MatERS1_i = private unnamed_addr constant [7 x i8] c"insert\00", align 1

; Function Attrs: mustprogress nounwind uwtable
define linkonce_odr hidden noundef ptr @_ZN2cv3Mat3ptrEi(ptr noundef nonnull align 8 dereferenceable(96) %0, i32 noundef %1) #4 comdat align 2 {
  %3 = alloca ptr, align 8
  %4 = alloca i32, align 4
  store ptr %0, ptr %3, align 8
  store i32 %1, ptr %4, align 4
  %5 = load ptr, ptr %3, align 8
  %6 = getelementptr inbounds %"class.cv::Mat", ptr %5, i32 0, i32 4
  %7 = load ptr, ptr %6, align 8
  %8 = getelementptr inbounds %"class.cv::Mat", ptr %5, i32 0, i32 11
  %9 = getelementptr inbounds %"struct.cv::MatStep", ptr %8, i32 0, i32 0
  %10 = load ptr, ptr %9, align 8
  %11 = getelementptr inbounds i64, ptr %10, i64 0
  %12 = load i64, ptr %11, align 8
  %13 = load i32, ptr %4, align 4
  %14 = sext i32 %13 to i64
  %15 = mul i64 %12, %14
  %16 = getelementptr inbounds i8, ptr %7, i64 %15
  ret ptr %16
}

; Function Attrs: mustprogress nounwind uwtable
define linkonce_odr hidden noundef i64 @_ZNK2cv3Mat8elemSizeEv(ptr noundef nonnull align 8 dereferenceable(96) %0) #4 comdat align 2 {
  %2 = alloca ptr, align 8
  %3 = alloca i64, align 8
  store ptr %0, ptr %2, align 8
  %4 = load ptr, ptr %2, align 8
  %5 = getelementptr inbounds %"class.cv::Mat", ptr %4, i32 0, i32 1
  %6 = load i32, ptr %5, align 4
  %7 = icmp sgt i32 %6, 0
  br i1 %7, label %8, label %18

8:                                                ; preds = %1
  %9 = getelementptr inbounds %"class.cv::Mat", ptr %4, i32 0, i32 11
  %10 = getelementptr inbounds %"struct.cv::MatStep", ptr %9, i32 0, i32 0
  %11 = load ptr, ptr %10, align 8
  %12 = getelementptr inbounds %"class.cv::Mat", ptr %4, i32 0, i32 1
  %13 = load i32, ptr %12, align 4
  %14 = sub nsw i32 %13, 1
  %15 = sext i32 %14 to i64
  %16 = getelementptr inbounds i64, ptr %11, i64 %15
  %17 = load i64, ptr %16, align 8
  br label %19

18:                                               ; preds = %1
  br label %19

19:                                               ; preds = %18, %8
  %20 = phi i64 [ %17, %8 ], [ 0, %18 ]
  store i64 %20, ptr %3, align 8
  %21 = load i64, ptr %3, align 8
  ret i64 %21
}

; Function Attrs: mustprogress nounwind uwtable
define linkonce_odr hidden noundef i32 @_ZNK2cv3Mat8channelsEv(ptr noundef nonnull align 8 dereferenceable(96) %0) #4 comdat align 2 {
  %2 = alloca ptr, align 8
  store ptr %0, ptr %2, align 8
  %3 = load ptr, ptr %2, align 8
  %4 = getelementptr inbounds %"class.cv::Mat", ptr %3, i32 0, i32 0
  %5 = load i32, ptr %4, align 8
  %6 = and i32 %5, 4088
  %7 = ashr i32 %6, 3
  %8 = add nsw i32 %7, 1
  ret i32 %8
}

; Function Attrs: mustprogress nounwind uwtable
define linkonce_odr hidden noundef i32 @_ZNK2cv3Mat5depthEv(ptr noundef nonnull align 8 dereferenceable(96) %0) #4 comdat align 2 {
  %2 = alloca ptr, align 8
  store ptr %0, ptr %2, align 8
  %3 = load ptr, ptr %2, align 8
  %4 = getelementptr inbounds %"class.cv::Mat", ptr %3, i32 0, i32 0
  %5 = load i32, ptr %4, align 8
  %6 = and i32 %5, 7
  ret i32 %6
}

; Function Attrs: mustprogress uwtable
define hidden void @_ZN6cvtest6insertERKN2cv3MatERS1_i(ptr noundef nonnull align 8 dereferenceable(96) %0, ptr noundef nonnull align 8 dereferenceable(96) %1, i32 noundef %2) #6 personality ptr @__gxx_personality_v0 {
  %4 = alloca ptr, align 8
  %5 = alloca ptr, align 8
  %6 = alloca i32, align 4
  %7 = alloca %"class.std::__cxx11::basic_string", align 8
  %8 = alloca %"class.std::allocator", align 1
  %9 = alloca ptr, align 8
  %10 = alloca i32, align 4
  %11 = alloca [3 x ptr], align 16
  %12 = alloca [2 x %"class.cv::Mat"], align 16
  %13 = alloca %"class.cv::NAryMatIterator", align 8
  %14 = alloca i64, align 8
  %15 = alloca i64, align 8
  %16 = alloca i64, align 8
  %17 = alloca i64, align 8
  %18 = alloca i64, align 8
  %19 = alloca i64, align 8
  %20 = alloca i64, align 8
  %21 = alloca ptr, align 8
  %22 = alloca ptr, align 8
  store ptr %0, ptr %4, align 8
  store ptr %1, ptr %5, align 8
  store i32 %2, ptr %6, align 4
  br label %23

23:                                               ; preds = %3
  %24 = load ptr, ptr %5, align 8
  %25 = getelementptr inbounds %"class.cv::Mat", ptr %24, i32 0, i32 10
  %26 = load ptr, ptr %4, align 8
  %27 = getelementptr inbounds %"class.cv::Mat", ptr %26, i32 0, i32 10
  %28 = call noundef zeroext i1 @_ZNK2cv7MatSizeeqERKS0_(ptr noundef nonnull align 8 dereferenceable(8) %25, ptr noundef nonnull align 8 dereferenceable(8) %27) #3
  br i1 %28, label %29, label %44

29:                                               ; preds = %23
  %30 = load ptr, ptr %4, align 8
  %31 = call noundef i32 @_ZNK2cv3Mat5depthEv(ptr noundef nonnull align 8 dereferenceable(96) %30)
  %32 = load ptr, ptr %5, align 8
  %33 = call noundef i32 @_ZNK2cv3Mat5depthEv(ptr noundef nonnull align 8 dereferenceable(96) %32)
  %34 = icmp eq i32 %31, %33
  br i1 %34, label %35, label %44

35:                                               ; preds = %29
  %36 = load i32, ptr %6, align 4
  %37 = icmp sle i32 0, %36
  br i1 %37, label %38, label %44

38:                                               ; preds = %35
  %39 = load i32, ptr %6, align 4
  %40 = load ptr, ptr %5, align 8
  %41 = call noundef i32 @_ZNK2cv3Mat8channelsEv(ptr noundef nonnull align 8 dereferenceable(96) %40)
  %42 = icmp slt i32 %39, %41
  br i1 %42, label %43, label %44

43:                                               ; preds = %38
  br label %56

44:                                               ; preds = %38, %35, %29, %23
  call void @_ZNSaIcEC1Ev(ptr noundef nonnull align 1 dereferenceable(1) %8) #3
  invoke void @_ZNSt7__cxx1112basic_stringIcSt11char_traitsIcESaIcEEC1EPKcRKS3_(ptr noundef nonnull align 8 dereferenceable(32) %7, ptr noundef @.str.38, ptr noundef nonnull align 1 dereferenceable(1) %8)
          to label %45 unwind label %47

45:                                               ; preds = %44
  invoke void @_ZN2cv5errorEiRKNSt7__cxx1112basic_stringIcSt11char_traitsIcESaIcEEEPKcS9_i(i32 noundef -215, ptr noundef nonnull align 8 dereferenceable(32) %7, ptr noundef @__func__._ZN6cvtest6insertERKN2cv3MatERS1_i, ptr noundef @.str.31, i32 noundef 468) #18
          to label %46 unwind label %51

46:                                               ; preds = %45
  unreachable

47:                                               ; preds = %44
  %48 = landingpad { ptr, i32 }
          cleanup
  %49 = extractvalue { ptr, i32 } %48, 0
  store ptr %49, ptr %9, align 8
  %50 = extractvalue { ptr, i32 } %48, 1
  store i32 %50, ptr %10, align 4
  br label %55

51:                                               ; preds = %45
  %52 = landingpad { ptr, i32 }
          cleanup
  %53 = extractvalue { ptr, i32 } %52, 0
  store ptr %53, ptr %9, align 8
  %54 = extractvalue { ptr, i32 } %52, 1
  store i32 %54, ptr %10, align 4
  call void @_ZNSt7__cxx1112basic_stringIcSt11char_traitsIcESaIcEED1Ev(ptr noundef nonnull align 8 dereferenceable(32) %7) #3
  br label %55

55:                                               ; preds = %51, %47
  call void @_ZNSaIcED1Ev(ptr noundef nonnull align 1 dereferenceable(1) %8) #3
  br label %154

56:                                               ; preds = %43
  br label %57

57:                                               ; preds = %56
  %58 = load ptr, ptr %4, align 8
  store ptr %58, ptr %11, align 8
  %59 = getelementptr inbounds ptr, ptr %11, i64 1
  %60 = load ptr, ptr %5, align 8
  store ptr %60, ptr %59, align 8
  %61 = getelementptr inbounds ptr, ptr %11, i64 2
  store ptr null, ptr %61, align 8
  %62 = getelementptr inbounds [2 x %"class.cv::Mat"], ptr %12, i32 0, i32 0
  %63 = getelementptr inbounds %"class.cv::Mat", ptr %62, i64 2
  br label %64

64:                                               ; preds = %64, %57
  %65 = phi ptr [ %62, %57 ], [ %66, %64 ]
  call void @_ZN2cv3MatC1Ev(ptr noundef nonnull align 8 dereferenceable(96) %65) #3
  %66 = getelementptr inbounds %"class.cv::Mat", ptr %65, i64 1
  %67 = icmp eq ptr %66, %63
  br i1 %67, label %68, label %64

68:                                               ; preds = %64
  %69 = getelementptr inbounds [3 x ptr], ptr %11, i64 0, i64 0
  %70 = getelementptr inbounds [2 x %"class.cv::Mat"], ptr %12, i64 0, i64 0
  invoke void @_ZN2cv15NAryMatIteratorC1EPPKNS_3MatEPS1_i(ptr noundef nonnull align 8 dereferenceable(64) %13, ptr noundef %69, ptr noundef %70, i32 noundef -1)
          to label %71 unwind label %119

71:                                               ; preds = %68
  %72 = getelementptr inbounds %"class.cv::NAryMatIterator", ptr %13, i32 0, i32 4
  %73 = load i64, ptr %72, align 8
  store i64 %73, ptr %15, align 8
  %74 = load ptr, ptr %4, align 8
  %75 = invoke noundef i64 @_ZNK2cv3Mat8elemSizeEv(ptr noundef nonnull align 8 dereferenceable(96) %74)
          to label %76 unwind label %119

76:                                               ; preds = %71
  store i64 %75, ptr %18, align 8
  %77 = load ptr, ptr %5, align 8
  %78 = invoke noundef i64 @_ZNK2cv3Mat8elemSizeEv(ptr noundef nonnull align 8 dereferenceable(96) %77)
          to label %79 unwind label %119

79:                                               ; preds = %76
  store i64 %78, ptr %19, align 8
  %80 = getelementptr inbounds [2 x %"class.cv::Mat"], ptr %12, i64 0, i64 0
  %81 = invoke noundef i64 @_ZNK2cv3Mat5totalEv(ptr noundef nonnull align 8 dereferenceable(96) %80)
          to label %82 unwind label %119

82:                                               ; preds = %79
  store i64 %81, ptr %20, align 8
  store i64 0, ptr %14, align 8
  br label %83

83:                                               ; preds = %140, %82
  %84 = load i64, ptr %14, align 8
  %85 = load i64, ptr %15, align 8
  %86 = icmp ult i64 %84, %85
  br i1 %86, label %87, label %141

87:                                               ; preds = %83
  %88 = getelementptr inbounds [2 x %"class.cv::Mat"], ptr %12, i64 0, i64 0
  %89 = invoke noundef ptr @_ZN2cv3Mat3ptrEi(ptr noundef nonnull align 8 dereferenceable(96) %88, i32 noundef 0)
          to label %90 unwind label %119

90:                                               ; preds = %87
  store ptr %89, ptr %21, align 8
  %91 = getelementptr inbounds [2 x %"class.cv::Mat"], ptr %12, i64 0, i64 1
  %92 = invoke noundef ptr @_ZN2cv3Mat3ptrEi(ptr noundef nonnull align 8 dereferenceable(96) %91, i32 noundef 0)
          to label %93 unwind label %119

93:                                               ; preds = %90
  %94 = load i32, ptr %6, align 4
  %95 = sext i32 %94 to i64
  %96 = load i64, ptr %18, align 8
  %97 = mul i64 %95, %96
  %98 = getelementptr inbounds i8, ptr %92, i64 %97
  store ptr %98, ptr %22, align 8
  store i64 0, ptr %16, align 8
  br label %99

99:                                               ; preds = %126, %93
  %100 = load i64, ptr %16, align 8
  %101 = load i64, ptr %20, align 8
  %102 = icmp ult i64 %100, %101
  br i1 %102, label %103, label %135

103:                                              ; preds = %99
  store i64 0, ptr %17, align 8
  br label %104

104:                                              ; preds = %116, %103
  %105 = load i64, ptr %17, align 8
  %106 = load i64, ptr %18, align 8
  %107 = icmp ult i64 %105, %106
  br i1 %107, label %108, label %125

108:                                              ; preds = %104
  %109 = load ptr, ptr %21, align 8
  %110 = load i64, ptr %17, align 8
  %111 = getelementptr inbounds i8, ptr %109, i64 %110
  %112 = load i8, ptr %111, align 1
  %113 = load ptr, ptr %22, align 8
  %114 = load i64, ptr %17, align 8
  %115 = getelementptr inbounds i8, ptr %113, i64 %114
  store i8 %112, ptr %115, align 1
  br label %116

116:                                              ; preds = %108
  %117 = load i64, ptr %17, align 8
  %118 = add i64 %117, 1
  store i64 %118, ptr %17, align 8
  br label %104, !llvm.loop !32

119:                                              ; preds = %136, %90, %87, %79, %76, %71, %68
  %120 = landingpad { ptr, i32 }
          cleanup
  %121 = extractvalue { ptr, i32 } %120, 0
  store ptr %121, ptr %9, align 8
  %122 = extractvalue { ptr, i32 } %120, 1
  store i32 %122, ptr %10, align 4
  %123 = getelementptr inbounds [2 x %"class.cv::Mat"], ptr %12, i32 0, i32 0
  %124 = getelementptr inbounds %"class.cv::Mat", ptr %123, i64 2
  br label %149

125:                                              ; preds = %104
  br label %126

126:                                              ; preds = %125
  %127 = load i64, ptr %16, align 8
  %128 = add i64 %127, 1
  store i64 %128, ptr %16, align 8
  %129 = load i64, ptr %18, align 8
  %130 = load ptr, ptr %21, align 8
  %131 = getelementptr inbounds i8, ptr %130, i64 %129
  store ptr %131, ptr %21, align 8
  %132 = load i64, ptr %19, align 8
  %133 = load ptr, ptr %22, align 8
  %134 = getelementptr inbounds i8, ptr %133, i64 %132
  store ptr %134, ptr %22, align 8
  br label %99, !llvm.loop !33

135:                                              ; preds = %99
  br label %136

136:                                              ; preds = %135
  %137 = load i64, ptr %14, align 8
  %138 = add i64 %137, 1
  store i64 %138, ptr %14, align 8
  %139 = invoke noundef nonnull align 8 dereferenceable(64) ptr @_ZN2cv15NAryMatIteratorppEv(ptr noundef nonnull align 8 dereferenceable(64) %13)
          to label %140 unwind label %119

140:                                              ; preds = %136
  br label %83, !llvm.loop !34

141:                                              ; preds = %83
  %142 = getelementptr inbounds [2 x %"class.cv::Mat"], ptr %12, i32 0, i32 0
  %143 = getelementptr inbounds %"class.cv::Mat", ptr %142, i64 2
  br label %144

144:                                              ; preds = %144, %141
  %145 = phi ptr [ %143, %141 ], [ %146, %144 ]
  %146 = getelementptr inbounds %"class.cv::Mat", ptr %145, i64 -1
  call void @_ZN2cv3MatD1Ev(ptr noundef nonnull align 8 dereferenceable(96) %146) #3
  %147 = icmp eq ptr %146, %142
  br i1 %147, label %148, label %144

148:                                              ; preds = %144
  ret void

149:                                              ; preds = %149, %119
  %150 = phi ptr [ %124, %119 ], [ %151, %149 ]
  %151 = getelementptr inbounds %"class.cv::Mat", ptr %150, i64 -1
  call void @_ZN2cv3MatD1Ev(ptr noundef nonnull align 8 dereferenceable(96) %151) #3
  %152 = icmp eq ptr %151, %123
  br i1 %152, label %153, label %149

153:                                              ; preds = %149
  br label %154

154:                                              ; preds = %153, %55
  %155 = load ptr, ptr %9, align 8
  %156 = load i32, ptr %10, align 4
  %157 = insertvalue { ptr, i32 } poison, ptr %155, 0
  %158 = insertvalue { ptr, i32 } %157, i32 %156, 1
  resume { ptr, i32 } %158
}