; Function Attrs: mustprogress uwtable
define hidden void @_ZN6cvtest6insertERKN2cv3MatERS1_i(ptr noundef nonnull align 8 dereferenceable(96) %0, ptr noundef nonnull align 8 dereferenceable(96) %1, i32 noundef %2) local_unnamed_addr #6 personality ptr @__gxx_personality_v0 {
  %4 = alloca %"class.std::__cxx11::basic_string", align 8
  %5 = alloca %"class.std::allocator", align 1
  %6 = alloca [3 x ptr], align 16
  %7 = alloca [2 x %"class.cv::Mat"], align 16
  %8 = alloca %"class.cv::NAryMatIterator", align 8
  %9 = getelementptr inbounds i8, ptr %1, i64 64
  %10 = getelementptr inbounds i8, ptr %0, i64 64
  %11 = tail call noundef zeroext i1 @_ZNK2cv7MatSizeeqERKS0_(ptr noundef nonnull align 8 dereferenceable(8) %9, ptr noundef nonnull align 8 dereferenceable(8) %10) #28
  br i1 %11, label %12, label %22

12:                                               ; preds = %3
  %13 = load i32, ptr %0, align 8
  %14 = load i32, ptr %1, align 8
  %15 = xor i32 %14, %13
  %16 = and i32 %15, 7
  %17 = icmp eq i32 %16, 0
  %18 = icmp sgt i32 %2, -1
  %or.cond = and i1 %18, %17
  br i1 %or.cond, label %19, label %22

19:                                               ; preds = %12
  %20 = lshr i32 %14, 3
  %21 = and i32 %20, 511
  %.not = icmp ult i32 %21, %2
  br i1 %.not, label %22, label %30

22:                                               ; preds = %19, %12, %3
  call void @_ZNSaIcEC1Ev(ptr noundef nonnull align 1 dereferenceable(1) %5) #28
  invoke void @_ZNSt7__cxx1112basic_stringIcSt11char_traitsIcESaIcEEC1EPKcRKS3_(ptr noundef nonnull align 8 dereferenceable(32) %4, ptr noundef nonnull @.str.38, ptr noundef nonnull align 1 dereferenceable(1) %5)
          to label %23 unwind label %25

23:                                               ; preds = %22
  invoke void @_ZN2cv5errorEiRKNSt7__cxx1112basic_stringIcSt11char_traitsIcESaIcEEEPKcS9_i(i32 noundef -215, ptr noundef nonnull align 8 dereferenceable(32) %4, ptr noundef nonnull @__func__._ZN6cvtest6insertERKN2cv3MatERS1_i, ptr noundef nonnull @.str.31, i32 noundef 468) #29
          to label %24 unwind label %27

24:                                               ; preds = %23
  unreachable

25:                                               ; preds = %22
  %26 = landingpad { ptr, i32 }
          cleanup
  br label %29

27:                                               ; preds = %23
  %28 = landingpad { ptr, i32 }
          cleanup
  call void @_ZNSt7__cxx1112basic_stringIcSt11char_traitsIcESaIcEED1Ev(ptr noundef nonnull align 8 dereferenceable(32) %4) #28
  br label %29

29:                                               ; preds = %27, %25
  %.pn = phi { ptr, i32 } [ %28, %27 ], [ %26, %25 ]
  call void @_ZNSaIcED1Ev(ptr noundef nonnull align 1 dereferenceable(1) %5) #28
  br label %.loopexit

30:                                               ; preds = %19
  store ptr %0, ptr %6, align 16
  %31 = getelementptr inbounds i8, ptr %6, i64 8
  store ptr %1, ptr %31, align 8
  %32 = getelementptr inbounds i8, ptr %6, i64 16
  store ptr null, ptr %32, align 16
  br label %33

33:                                               ; preds = %33, %30
  %.idx = phi i64 [ 0, %30 ], [ %.add, %33 ]
  %.ptr = getelementptr inbounds i8, ptr %7, i64 %.idx
  call void @_ZN2cv3MatC1Ev(ptr noundef nonnull align 8 dereferenceable(96) %.ptr) #28
  %.add = add nuw nsw i64 %.idx, 96
  %34 = icmp eq i64 %.add, 192
  br i1 %34, label %35, label %33

35:                                               ; preds = %33
  %36 = getelementptr inbounds i8, ptr %7, i64 192
  invoke void @_ZN2cv15NAryMatIteratorC1EPPKNS_3MatEPS1_i(ptr noundef nonnull align 8 dereferenceable(64) %8, ptr noundef nonnull %6, ptr noundef nonnull %7, i32 noundef -1)
          to label %37 unwind label %.loopexit.split-lp

37:                                               ; preds = %35
  %38 = getelementptr inbounds i8, ptr %8, i64 32
  %39 = load i64, ptr %38, align 8
  %40 = getelementptr inbounds i8, ptr %0, i64 4
  %41 = load i32, ptr %40, align 4
  %42 = icmp sgt i32 %41, 0
  br i1 %42, label %43, label %_ZNK2cv3Mat8elemSizeEv.exit

43:                                               ; preds = %37
  %44 = getelementptr inbounds i8, ptr %0, i64 72
  %45 = load ptr, ptr %44, align 8
  %46 = zext nneg i32 %41 to i64
  %47 = getelementptr i64, ptr %45, i64 %46
  %48 = getelementptr i8, ptr %47, i64 -8
  %49 = load i64, ptr %48, align 8
  %50 = freeze i64 %49
  br label %_ZNK2cv3Mat8elemSizeEv.exit

_ZNK2cv3Mat8elemSizeEv.exit:                      ; preds = %37, %43
  %.fr63 = phi i64 [ %50, %43 ], [ 0, %37 ]
  %51 = getelementptr inbounds i8, ptr %1, i64 4
  %52 = load i32, ptr %51, align 4
  %53 = icmp sgt i32 %52, 0
  br i1 %53, label %54, label %_ZNK2cv3Mat8elemSizeEv.exit46

54:                                               ; preds = %_ZNK2cv3Mat8elemSizeEv.exit
  %55 = getelementptr inbounds i8, ptr %1, i64 72
  %56 = load ptr, ptr %55, align 8
  %57 = zext nneg i32 %52 to i64
  %58 = getelementptr i64, ptr %56, i64 %57
  %59 = getelementptr i8, ptr %58, i64 -8
  %60 = load i64, ptr %59, align 8
  br label %_ZNK2cv3Mat8elemSizeEv.exit46

_ZNK2cv3Mat8elemSizeEv.exit46:                    ; preds = %_ZNK2cv3Mat8elemSizeEv.exit, %54
  %61 = phi i64 [ %60, %54 ], [ 0, %_ZNK2cv3Mat8elemSizeEv.exit ]
  %62 = invoke noundef i64 @_ZNK2cv3Mat5totalEv(ptr noundef nonnull align 8 dereferenceable(96) %7)
          to label %.preheader48 unwind label %.loopexit.split-lp

.preheader48:                                     ; preds = %_ZNK2cv3Mat8elemSizeEv.exit46
  %63 = getelementptr inbounds i8, ptr %7, i64 16
  %64 = getelementptr inbounds i8, ptr %7, i64 112
  %65 = zext nneg i32 %2 to i64
  %66 = mul i64 %.fr63, %65
  %.not62 = icmp eq i64 %62, 0
  br i1 %.not62, label %.preheader48.split, label %.preheader48.split.us

.preheader48.split.us:                            ; preds = %.preheader48
  %.not64 = icmp eq i64 %.fr63, 0
  br i1 %.not64, label %.preheader48.split.us.split, label %.preheader48.split.us.split.us

.preheader48.split.us.split.us:                   ; preds = %.preheader48.split.us, %._crit_edge54.split.us.us.us
  %.036.us.us = phi i64 [ %78, %._crit_edge54.split.us.us.us ], [ 0, %.preheader48.split.us ]
  %exitcond68.not = icmp eq i64 %.036.us.us, %39
  br i1 %exitcond68.not, label %.preheader.preheader, label %.preheader47.lr.ph.us.us

.preheader47.lr.ph.us.us:                         ; preds = %.preheader48.split.us.split.us
  %67 = load ptr, ptr %63, align 16
  %68 = load ptr, ptr %64, align 16
  %69 = getelementptr inbounds i8, ptr %68, i64 %66
  br label %.preheader47.us.us.us

.preheader47.us.us.us:                            ; preds = %._crit_edge.us.us.us, %.preheader47.lr.ph.us.us
  %.053.us.us.us = phi ptr [ %69, %.preheader47.lr.ph.us.us ], [ %77, %._crit_edge.us.us.us ]
  %.03252.us.us.us = phi ptr [ %67, %.preheader47.lr.ph.us.us ], [ %76, %._crit_edge.us.us.us ]
  %.03851.us.us.us = phi i64 [ 0, %.preheader47.lr.ph.us.us ], [ %75, %._crit_edge.us.us.us ]
  br label %70

70:                                               ; preds = %70, %.preheader47.us.us.us
  %.03750.us.us.us = phi i64 [ 0, %.preheader47.us.us.us ], [ %74, %70 ]
  %71 = getelementptr inbounds i8, ptr %.03252.us.us.us, i64 %.03750.us.us.us
  %72 = load i8, ptr %71, align 1
  %73 = getelementptr inbounds i8, ptr %.053.us.us.us, i64 %.03750.us.us.us
  store i8 %72, ptr %73, align 1
  %74 = add nuw i64 %.03750.us.us.us, 1
  %exitcond.not = icmp eq i64 %74, %.fr63
  br i1 %exitcond.not, label %._crit_edge.us.us.us, label %70, !llvm.loop !200

._crit_edge.us.us.us:                             ; preds = %70
  %75 = add nuw i64 %.03851.us.us.us, 1
  %76 = getelementptr inbounds i8, ptr %.03252.us.us.us, i64 %.fr63
  %77 = getelementptr inbounds i8, ptr %.053.us.us.us, i64 %61
  %exitcond67.not = icmp eq i64 %75, %62
  br i1 %exitcond67.not, label %._crit_edge54.split.us.us.us, label %.preheader47.us.us.us, !llvm.loop !201

._crit_edge54.split.us.us.us:                     ; preds = %._crit_edge.us.us.us
  %78 = add i64 %.036.us.us, 1
  %79 = invoke noundef nonnull align 8 dereferenceable(64) ptr @_ZN2cv15NAryMatIteratorppEv(ptr noundef nonnull align 8 dereferenceable(64) %8)
          to label %.preheader48.split.us.split.us unwind label %.loopexit49.split.us.split.us, !llvm.loop !202

.loopexit49.split.us.split.us:                    ; preds = %._crit_edge54.split.us.us.us
  %lpad.loopexit.us.us = landingpad { ptr, i32 }
          cleanup
  br label %.loopexit49

.preheader48.split.us.split:                      ; preds = %.preheader48.split.us, %.preheader47.lr.ph.us
  %.036.us = phi i64 [ %80, %.preheader47.lr.ph.us ], [ 0, %.preheader48.split.us ]
  %exitcond69.not = icmp eq i64 %.036.us, %39
  br i1 %exitcond69.not, label %.preheader.preheader, label %.preheader47.lr.ph.us

.preheader47.lr.ph.us:                            ; preds = %.preheader48.split.us.split
  %80 = add i64 %.036.us, 1
  %81 = invoke noundef nonnull align 8 dereferenceable(64) ptr @_ZN2cv15NAryMatIteratorppEv(ptr noundef nonnull align 8 dereferenceable(64) %8)
          to label %.preheader48.split.us.split unwind label %.loopexit49.split.us.split, !llvm.loop !202

.loopexit49.split.us.split:                       ; preds = %.preheader47.lr.ph.us
  %lpad.loopexit.us = landingpad { ptr, i32 }
          cleanup
  br label %.loopexit49

.preheader48.split:                               ; preds = %.preheader48, %82
  %.036 = phi i64 [ %83, %82 ], [ 0, %.preheader48 ]
  %exitcond70.not = icmp eq i64 %.036, %39
  br i1 %exitcond70.not, label %.preheader.preheader, label %82

.preheader.preheader:                             ; preds = %.preheader48.split.us.split.us, %.preheader48.split.us.split, %.preheader48.split
  br label %.preheader

82:                                               ; preds = %.preheader48.split
  %83 = add i64 %.036, 1
  %84 = invoke noundef nonnull align 8 dereferenceable(64) ptr @_ZN2cv15NAryMatIteratorppEv(ptr noundef nonnull align 8 dereferenceable(64) %8)
          to label %.preheader48.split unwind label %.loopexit49.split, !llvm.loop !202

.loopexit49.split:                                ; preds = %82
  %lpad.loopexit = landingpad { ptr, i32 }
          cleanup
  br label %.loopexit49

.loopexit.split-lp:                               ; preds = %35, %_ZNK2cv3Mat8elemSizeEv.exit46
  %lpad.loopexit.split-lp = landingpad { ptr, i32 }
          cleanup
  br label %.loopexit49

.loopexit49:                                      ; preds = %.loopexit49.split, %.loopexit49.split.us.split.us, %.loopexit49.split.us.split, %.loopexit.split-lp
  %lpad.phi = phi { ptr, i32 } [ %lpad.loopexit.split-lp, %.loopexit.split-lp ], [ %lpad.loopexit, %.loopexit49.split ], [ %lpad.loopexit.us, %.loopexit49.split.us.split ], [ %lpad.loopexit.us.us, %.loopexit49.split.us.split.us ]
  br label %89

.preheader:                                       ; preds = %.preheader.preheader, %.preheader
  %85 = phi ptr [ %86, %.preheader ], [ %36, %.preheader.preheader ]
  %86 = getelementptr inbounds i8, ptr %85, i64 -96
  call void @_ZN2cv3MatD1Ev(ptr noundef nonnull align 8 dereferenceable(96) %86) #28
  %87 = icmp eq ptr %86, %7
  br i1 %87, label %88, label %.preheader

88:                                               ; preds = %.preheader
  ret void

89:                                               ; preds = %89, %.loopexit49
  %90 = phi ptr [ %36, %.loopexit49 ], [ %91, %89 ]
  %91 = getelementptr inbounds i8, ptr %90, i64 -96
  call void @_ZN2cv3MatD1Ev(ptr noundef nonnull align 8 dereferenceable(96) %91) #28
  %92 = icmp eq ptr %91, %7
  br i1 %92, label %.loopexit, label %89

.loopexit:                                        ; preds = %89, %29
  %.pn44 = phi { ptr, i32 } [ %.pn, %29 ], [ %lpad.phi, %89 ]
  resume { ptr, i32 } %.pn44
}